; Function Attrs: nounwind uwtable
define noalias nonnull ptr @l_Lake_toFamily___boxed(ptr noundef readnone captures(none) %0, ptr noundef readnone captures(none) %1, ptr noundef %2, ptr noundef readnone captures(none) %3, ptr noundef readnone captures(none) %4) local_unnamed_addr #0 {
  tail call void @lean_inc_heartbeat() #6
  %6 = tail call noalias ptr @mi_malloc_small(i64 noundef 24) #6
  %7 = icmp eq ptr %6, null
  br i1 %7, label %8, label %l_Lake_toFamily.exit

8:                                                ; preds = %5
  tail call void @lean_internal_panic_out_of_memory() #7
  unreachable

l_Lake_toFamily.exit:                             ; preds = %5
  %9 = getelementptr inbounds nuw i8, ptr %6, i64 4
  store i32 1, ptr %6, align 4, !tbaa !4
  store i32 -184549352, ptr %9, align 4
  %10 = getelementptr inbounds nuw i8, ptr %6, i64 8
  store ptr @l_Lake_toFamily___rarg___boxed, ptr %10, align 8, !tbaa !10
  %11 = getelementptr inbounds nuw i8, ptr %6, i64 16
  store i16 1, ptr %11, align 8, !tbaa !12
  %12 = getelementptr inbounds nuw i8, ptr %6, i64 18
  store i16 0, ptr %12, align 2, !tbaa !12
  %13 = ptrtoint ptr %2 to i64
  %14 = and i64 %13, 1
  %.not = icmp eq i64 %14, 0
  br i1 %.not, label %15, label %lean_dec.exit

15:                                               ; preds = %l_Lake_toFamily.exit
  %16 = load i32, ptr %2, align 4, !tbaa !4
  %17 = icmp sgt i32 %16, 1
  br i1 %17, label %18, label %20, !prof !9

18:                                               ; preds = %15
  %19 = add nsw i32 %16, -1
  store i32 %19, ptr %2, align 4, !tbaa !4
  br label %lean_dec.exit

20:                                               ; preds = %15
  %.not.i = icmp eq i32 %16, 0
  br i1 %.not.i, label %lean_dec.exit, label %21

21:                                               ; preds = %20
  tail call void @lean_dec_ref_cold(ptr noundef nonnull %2) #6
  br label %lean_dec.exit

lean_dec.exit:                                    ; preds = %21, %20, %18, %l_Lake_toFamily.exit
  ret ptr %6
}